; Function Attrs: mustprogress nounwind uwtable
define hidden noundef zeroext i1 @_ZNK18CompiledDirectCall8is_cleanEv(ptr nocapture noundef nonnull readonly align 8 dereferenceable(8) %0) local_unnamed_addr #0 align 2 {
  %2 = load ptr, ptr %0, align 8
  %3 = tail call noundef ptr @_ZNK10NativeCall11destinationEv(ptr noundef nonnull align 1 dereferenceable(1) %2) #14
  %4 = load ptr, ptr @_ZN13SharedRuntime25_resolve_static_call_blobE, align 8
  %5 = getelementptr inbounds i8, ptr %4, i64 36
  %6 = load i32, ptr %5, align 4
  %7 = sext i32 %6 to i64
  %8 = getelementptr inbounds i8, ptr %4, i64 %7
  %9 = icmp eq ptr %3, %8
  br i1 %9, label %19, label %10

10:                                               ; preds = %1
  %11 = load ptr, ptr %0, align 8
  %12 = tail call noundef ptr @_ZNK10NativeCall11destinationEv(ptr noundef nonnull align 1 dereferenceable(1) %11) #14
  %13 = load ptr, ptr @_ZN13SharedRuntime30_resolve_opt_virtual_call_blobE, align 8
  %14 = getelementptr inbounds i8, ptr %13, i64 36
  %15 = load i32, ptr %14, align 4
  %16 = sext i32 %15 to i64
  %17 = getelementptr inbounds i8, ptr %13, i64 %16
  %18 = icmp eq ptr %12, %17
  br label %19

19:                                               ; preds = %10, %1
  %20 = phi i1 [ true, %1 ], [ %18, %10 ]
  ret i1 %20
}